Certificate:
    Data:
        Version: 1 (0x0)
        Serial Number: 1048577 (0x100001)
        Signature Algorithm: sha1WithRSAEncryption
        Issuer: C=SE, ST=Sk\xC3\xA5ne, L=Lund, O=SICS AB, OU=Secure Systems Group, CN=AssertionServer2/emailAddress=assertionServer@mailmetrash.com
        Validity
            Not Before: May 27 13:10:01 2011 GMT
            Not After : May 26 13:10:01 2012 GMT
        Subject: C=SE, ST=Sk\xC3\xA5ne, O=SICS AB, OU=Secure Systems Group, CN=AssertionServer2
        Subject Public Key Info:
            Public Key Algorithm: rsaEncryption
            RSA Public Key: (4096 bit)
                Modulus (4096 bit):
                    00:c0:f6:bc:ba:9d:c9:db:12:45:20:6f:0e:01:5f:
                    a5:ec:c5:25:f7:13:39:03:3e:bb:7e:e2:ed:b2:2c:
                    5d:0a:2b:16:95:8c:cd:98:06:1f:91:75:ab:13:78:
                    97:57:3a:09:4b:1e:e2:49:be:79:1f:fc:ae:90:cc:
                    33:aa:c3:5b:7b:23:e3:19:d4:2e:a8:3c:b4:7a:ab:
                    4b:4e:cc:9c:68:ba:f0:d7:f5:99:fa:20:26:a9:a9:
                    67:db:43:2b:d2:9f:df:e0:7e:6d:bd:b1:dd:46:fb:
                    77:86:38:fa:fd:25:35:cd:ba:eb:ee:b0:4d:b1:72:
                    bf:2d:c4:2f:e2:b6:a3:b4:ba:d3:e7:0c:70:30:27:
                    6c:7c:23:1f:9d:03:f0:d1:81:eb:ac:75:a0:28:a3:
                    1e:f9:15:0c:21:56:62:71:53:aa:f2:6c:9d:5b:91:
                    6e:f2:f0:e5:6a:75:10:8b:b0:66:b5:62:8a:ca:f6:
                    ca:e3:ab:ca:24:23:3a:4c:7b:83:ba:d9:5d:40:19:
                    b8:05:51:8f:fe:d5:a1:02:89:7d:6a:d3:34:7b:aa:
                    99:36:61:c4:93:e0:81:f1:6e:21:64:18:92:e2:e1:
                    fc:81:0c:58:bf:bc:b1:09:1f:ee:ba:78:a5:63:dd:
                    50:9a:62:8d:1b:70:27:9c:ff:30:a2:bc:05:a4:fb:
                    68:00:19:36:5d:1c:21:ff:c6:d8:84:f4:48:ca:11:
                    52:9c:3b:84:e1:4e:5f:96:8f:3c:e9:ec:1d:82:92:
                    f3:33:3a:c0:e6:ce:af:77:92:5c:27:bc:21:85:28:
                    be:4f:39:e6:4e:93:ee:c0:6a:ba:9c:dc:75:e5:1b:
                    01:c1:b1:cf:cf:1e:fd:1d:3c:20:96:3e:2e:20:6d:
                    4a:80:9b:c9:eb:5d:a5:d9:6d:5f:f1:5a:8b:54:6c:
                    22:71:07:11:d6:ba:2b:18:3d:fc:09:22:ff:fd:00:
                    44:3f:ac:c6:79:d0:54:c4:5a:0a:e8:ca:a1:5e:02:
                    71:3f:72:f2:34:10:bc:1d:cb:86:56:90:b8:f5:95:
                    38:d5:5b:41:74:29:2f:8f:c5:ad:a8:25:0a:37:25:
                    16:f0:98:d1:42:10:1f:a3:c7:b1:b6:96:c9:ce:fb:
                    d9:af:d6:3d:54:2a:d0:7f:cc:99:a3:89:2c:9a:2c:
                    f9:e6:27:60:90:b9:62:b8:81:9d:33:f3:22:cc:ef:
                    f7:46:ac:4a:a0:3c:8a:41:bb:58:e8:eb:27:fd:ec:
                    f7:58:60:cd:af:43:1b:5a:35:2b:da:ab:31:5c:63:
                    cb:d3:2b:d4:09:79:e0:37:00:cd:bb:cc:44:28:35:
                    43:a3:58:4b:0f:5e:57:8b:a8:3d:6b:38:62:c0:8a:
                    9f:74:d3
                Exponent: 65537 (0x10001)
    Signature Algorithm: sha1WithRSAEncryption
        b3:b3:27:13:8e:29:ba:a3:df:1a:4b:b8:d1:ad:67:fe:0d:0a:
        12:a0:10:5b:ef:ca:28:6c:bf:25:8a:90:1a:06:19:2a:0b:37:
        d7:56:85:5e:aa:ab:39:4b:16:01:51:17:7e:1c:1a:6b:0e:dc:
        be:2e:35:02:5f:cf:9d:2c:de:77:e1:9b:9b:c2:a7:71:cc:07:
        19:f5:af:66:3e:7d:12:8f:66:2a:69:25:ae:96:20:2c:bb:c1:
        c8:ef:f5:9d:d1:ae:f8:3c:80:97:45:f1:03:c1:45:0c:93:7f:
        3e:0e:f1:f2:9d:2b:83:f3:65:51:88:e5:84:fc:71:f0:a6:5a:
        f6:58:bb:15:6c:18:82:1c:ae:8f:d4:f7:6b:71:34:6d:f1:6d:
        75:9f:03:a0:6f:94:9d:03:cf:1e:b1:0c:dd:2d:80:0a:b0:b1:
        df:e7:37:2a:75:f8:cc:a8:4d:70:10:16:ff:5d:f3:5b:42:d7:
        b1:62:a6:5b:b7:89:6b:94:63:df:45:8a:3c:4a:9f:2d:ee:0f:
        3e:7f:17:43:6c:35:c7:93:cc:e6:2f:a8:75:93:e9:ff:87:56:
        29:a0:c9:a0:ee:3b:56:12:cf:28:8c:d0:37:12:25:1c:63:b0:
        6d:3c:d9:c0:28:b4:56:bd:0d:cd:e4:e6:70:92:0a:5d:e6:f7:
        37:f8:3b:04:aa:73:d6:bf:bd:ab:3b:2c:6a:bf:74:db:ba:eb:
        81:e1:96:b6:18:d9:7e:0d:14:80:cc:a3:84:d9:7a:c4:84:1a:
        aa:f2:de:9f:c2:b8:fc:01:dc:5e:a6:83:51:50:21:06:8a:29:
        f9:3d:d1:9b:32:6d:f8:c0:65:91:d7:59:b0:cc:dc:a2:d6:06:
        09:13:74:f7:e1:d5:6d:79:d8:56:ef:34:a9:6c:61:d9:cd:44:
        81:d1:3b:7d:57:51:77:96:c7:c1:15:7e:97:d5:53:79:97:cc:
        1b:e6:22:ed:26:cf:ee:d6:97:67:32:06:88:00:57:61:24:f7:
        5d:84:80:a8:ee:1a:b4:0c:ce:9d:c1:7a:a9:2e:d5:cd:0d:00:
        3a:24:f8:3e:4f:ba:d1:45:4f:02:8c:3f:cc:c6:04:71:4a:dd:
        b0:45:39:8f:33:55:59:1c:f0:7f:4a:bd:96:42:0e:ee:51:5f:
        1c:89:a7:3e:bc:0b:28:59:05:5f:08:da:42:e5:41:2b:db:b5:
        8d:fa:91:f7:61:97:58:11:8f:b3:da:ac:32:80:9d:1a:06:37:
        97:f0:e0:2c:13:75:b7:73:51:b8:33:44:87:66:9c:8a:e0:42:
        eb:7c:35:1a:bc:8e:56:18:90:2b:8e:04:d0:7c:db:08:6f:cf:
        3d:52:22:bf:3d:bd:b4:e2
-----BEGIN CERTIFICATE-----
MIIFijCCA3ICAxAAATANBgkqhkiG9w0BAQUFADCBqTELMAkGA1UEBhMCU0UxDzAN
BgNVBAgUBlNrw6VuZTENMAsGA1UEBxMETHVuZDEQMA4GA1UEChMHU0lDUyBBQjEd
MBsGA1UECxMUU2VjdXJlIFN5c3RlbXMgR3JvdXAxGTAXBgNVBAMTEEFzc2VydGlv
blNlcnZlcjIxLjAsBgkqhkiG9w0BCQEWH2Fzc2VydGlvblNlcnZlckBtYWlsbWV0
cmFzaC5jb20wHhcNMTEwNTI3MTMxMDAxWhcNMTIwNTI2MTMxMDAxWjBqMQswCQYD
VQQGEwJTRTEPMA0GA1UECBQGU2vDpW5lMRAwDgYDVQQKEwdTSUNTIEFCMR0wGwYD
VQQLExRTZWN1cmUgU3lzdGVtcyBHcm91cDEZMBcGA1UEAxMQQXNzZXJ0aW9uU2Vy
dmVyMjCCAiIwDQYJKoZIhvcNAQEBBQADggIPADCCAgoCggIBAMD2vLqdydsSRSBv
DgFfpezFJfcTOQM+u37i7bIsXQorFpWMzZgGH5F1qxN4l1c6CUse4km+eR/8rpDM
M6rDW3sj4xnULqg8tHqrS07MnGi68Nf1mfogJqmpZ9tDK9Kf3+B+bb2x3Ub7d4Y4
+v0lNc266+6wTbFyvy3EL+K2o7S60+cMcDAnbHwjH50D8NGB66x1oCijHvkVDCFW
YnFTqvJsnVuRbvLw5Wp1EIuwZrViisr2yuOryiQjOkx7g7rZXUAZuAVRj/7VoQKJ
fWrTNHuqmTZhxJPggfFuIWQYkuLh/IEMWL+8sQkf7rp4pWPdUJpijRtwJ5z/MKK8
BaT7aAAZNl0cIf/G2IT0SMoRUpw7hOFOX5aPPOnsHYKS8zM6wObOr3eSXCe8IYUo
vk855k6T7sBqupzcdeUbAcGxz88e/R08IJY+LiBtSoCbyetdpdltX/Fai1RsInEH
Eda6Kxg9/Aki//0ARD+sxnnQVMRaCujKoV4CcT9y8jQQvB3LhlaQuPWVONVbQXQp
L4/FraglCjclFvCY0UIQH6PHsbaWyc772a/WPVQq0H/MmaOJLJos+eYnYJC5YriB
nTPzIszv90asSqA8ikG7WOjrJ/3s91hgza9DG1o1K9qrMVxjy9Mr1Al54DcAzbvM
RCg1Q6NYSw9eV4uoPWs4YsCKn3TTAgMBAAEwDQYJKoZIhvcNAQEFBQADggIBALOz
JxOOKbqj3xpLuNGtZ/4NChKgEFvvyihsvyWKkBoGGSoLN9dWhV6qqzlLFgFRF34c
GmsO3L4uNQJfz50s3nfhm5vCp3HMBxn1r2Y+fRKPZippJa6WICy7wcjv9Z3Rrvg8
gJdF8QPBRQyTfz4O8fKdK4PzZVGI5YT8cfCmWvZYuxVsGIIcro/U92txNG3xbXWf
A6BvlJ0Dzx6xDN0tgAqwsd/nNyp1+MyoTXAQFv9d81tC17Fiplu3iWuUY99FijxK
ny3uDz5/F0NsNceTzOYvqHWT6f+HVimgyaDuO1YSzyiM0DcSJRxjsG082cAotFa9
Dc3k5nCSCl3m9zf4OwSqc9a/vas7LGq/dNu664HhlrYY2X4NFIDMo4TZesSEGqry
3p/CuPwB3F6mg1FQIQaKKfk90ZsybfjAZZHXWbDM3KLWBgkTdPfh1W152FbvNKls
YdnNRIHRO31XUXeWx8EVfpfVU3mXzBvmIu0mz+7Wl2cyBogAV2Ek912EgKjuGrQM
zp3Beqku1c0NADok+D5PutFFTwKMP8zGBHFK3bBFOY8zVVkc8H9KvZZCDu5RXxyJ
pz68CyhZBV8I2kLlQSvbtY36kfdhl1gRj7ParDKAnRoGN5fw4CwTdbdzUbgzRIdm
nIrgQut8NRq8jlYYkCuOBNB82whvzz1SIr89vbTi
-----END CERTIFICATE-----
